(dp1
S'output'
p2
S"<type 'exceptions.NameError'> name 'checkbox' is not defined"
p3
sS'layer'
p4
S'/home/satyam/itws/web2py/applications/COOKRE/models/friends.py'
p5
sS'code'
p6
S'from datetime import datetime\n\ndb.define_table(\'category\',Field(\'name\'),format = \'%(name)s\')\n\ndb.define_table(\'recipe\',\n  Field(\'user_ref\',\'reference auth_user\', default=auth.user_id, readable=False, writable=False),\n  Field(\'creationTime\',\'datetime\', default=datetime.utcnow(), readable=False, writable=False),\n  Field(\'title\',\'string\', requires=IS_NOT_EMPTY()),\n  Field(\'category\',_type=checkbox,requires=IS_IN_SET(("VEG", "NON-VEG"),zero=T("choose one"),\n         error_message=\'must be a or b or c\',multiple=False)),\n  Field(\'ingredients\',\'list:string\', requires=IS_NOT_EMPTY()),\n  Field(\'directions\',\'list:string\', requires=IS_NOT_EMPTY()),\n  Field(\'src\',\'string\'),\n  Field(\'notes\',\'text\'),\n  Field(\'pictures\',\'upload\'),\n)\n'
p7
sS'snapshot'
p8
(dp9
S'exception'
p10
(dp11
S'__hash__'
p12
S"<method-wrapper '__hash__' of exceptions.NameError object>"
p13
sS'__setattr__'
p14
S"<method-wrapper '__setattr__' of exceptions.NameError object>"
p15
sS'__reduce_ex__'
p16
S'<built-in method __reduce_ex__ of exceptions.NameError object>'
p17
sS'__getslice__'
p18
S"<method-wrapper '__getslice__' of exceptions.NameError object>"
p19
sS'__getitem__'
p20
S"<method-wrapper '__getitem__' of exceptions.NameError object>"
p21
sS'__setstate__'
p22
S'<built-in method __setstate__ of exceptions.NameError object>'
p23
sS'args'
p24
S'("name \'checkbox\' is not defined",)'
p25
sS'__reduce__'
p26
S'<built-in method __reduce__ of exceptions.NameError object>'
p27
sS'__str__'
p28
S"<method-wrapper '__str__' of exceptions.NameError object>"
p29
sS'__format__'
p30
S'<built-in method __format__ of exceptions.NameError object>'
p31
sS'__getattribute__'
p32
S"<method-wrapper '__getattribute__' of exceptions.NameError object>"
p33
sS'__class__'
p34
S"<type 'exceptions.NameError'>"
p35
sS'__unicode__'
p36
S'<built-in method __unicode__ of exceptions.NameError object>'
p37
sS'__delattr__'
p38
S"<method-wrapper '__delattr__' of exceptions.NameError object>"
p39
sS'__subclasshook__'
p40
S'<built-in method __subclasshook__ of type object>'
p41
sS'__repr__'
p42
S"<method-wrapper '__repr__' of exceptions.NameError object>"
p43
sS'__dict__'
p44
S'{}'
p45
sS'__sizeof__'
p46
S'<built-in method __sizeof__ of exceptions.NameError object>'
p47
sS'__doc__'
p48
S"'Name not found globally.'"
p49
sS'__init__'
p50
S"<method-wrapper '__init__' of exceptions.NameError object>"
p51
sS'__new__'
p52
S'<built-in method __new__ of type object>'
p53
ssS'evalue'
p54
S"name 'checkbox' is not defined"
p55
sS'request'
p56
cgluon.html
XML_unpickle
p57
(S's\x00f\x00\x00<div><table><tr><td style="font-weight:bold;vertical-align:top;">ajax</td><td style="vertical-align:top;">:</td><td><div>True</div></td></tr><tr><td style="font-weight:bold;vertical-align:top;">application</td><td style="vertical-align:top;">:</td><td><div>COOKRE</div></td></tr><tr><td style="font-weight:bold;vertical-align:top;">args</td><td style="vertical-align:top;">:</td><td><div><table></table></div></td></tr><tr><td style="font-weight:bold;vertical-align:top;">cid</td><td style="vertical-align:top;">:</td><td><div>c693711471972</div></td></tr><tr><td style="font-weight:bold;vertical-align:top;">client</td><td style="vertical-align:top;">:</td><td><div>127.0.0.1</div></td></tr><tr><td style="font-weight:bold;vertical-align:top;">controller</td><td style="vertical-align:top;">:</td><td><div>appadmin</div></td></tr><tr><td style="font-weight:bold;vertical-align:top;">cookies</td><td style="vertical-align:top;">:</td><td><div><table><tr><td style="font-weight:bold;vertical-align:top;">session_id_admin</td><td style="vertical-align:top;">:</td><td><div>127.0.0.1-dc3bb73f-4980-4341-ae0c-25d3dadb69dc<table><tr><td style="font-weight:bold;vertical-align:top;">comment</td><td style="vertical-align:top;">:</td><td><div></div></td></tr><tr><td style="font-weight:bold;vertical-align:top;">domain</td><td style="vertical-align:top;">:</td><td><div></div></td></tr><tr><td style="font-weight:bold;vertical-align:top;">expires</td><td style="vertical-align:top;">:</td><td><div></div></td></tr><tr><td style="font-weight:bold;vertical-align:top;">httponly</td><td style="vertical-align:top;">:</td><td><div></div></td></tr><tr><td style="font-weight:bold;vertical-align:top;">max-age</td><td style="vertical-align:top;">:</td><td><div></div></td></tr><tr><td style="font-weight:bold;vertical-align:top;">path</td><td style="vertical-align:top;">:</td><td><div></div></td></tr><tr><td style="font-weight:bold;vertical-align:top;">secure</td><td style="vertical-align:top;">:</td><td><div></div></td></tr><tr><td style="font-weight:bold;vertical-align:top;">version</td><td style="vertical-align:top;">:</td><td><div></div></td></tr></table></div></td></tr><tr><td style="font-weight:bold;vertical-align:top;">session_id_cookre</td><td style="vertical-align:top;">:</td><td><div>127.0.0.1-97d4dde2-9032-47b5-84b3-c990886403e3<table><tr><td style="font-weight:bold;vertical-align:top;">comment</td><td style="vertical-align:top;">:</td><td><div></div></td></tr><tr><td style="font-weight:bold;vertical-align:top;">domain</td><td style="vertical-align:top;">:</td><td><div></div></td></tr><tr><td style="font-weight:bold;vertical-align:top;">expires</td><td style="vertical-align:top;">:</td><td><div></div></td></tr><tr><td style="font-weight:bold;vertical-align:top;">httponly</td><td style="vertical-align:top;">:</td><td><div></div></td></tr><tr><td style="font-weight:bold;vertical-align:top;">max-age</td><td style="vertical-align:top;">:</td><td><div></div></td></tr><tr><td style="font-weight:bold;vertical-align:top;">path</td><td style="vertical-align:top;">:</td><td><div></div></td></tr><tr><td style="font-weight:bold;vertical-align:top;">secure</td><td style="vertical-align:top;">:</td><td><div></div></td></tr><tr><td style="font-weight:bold;vertical-align:top;">version</td><td style="vertical-align:top;">:</td><td><div></div></td></tr></table></div></td></tr><tr><td style="font-weight:bold;vertical-align:top;">session_id_welcome</td><td style="vertical-align:top;">:</td><td><div>127.0.0.1-2f30b862-4d42-4b9f-b6c4-9549ac6a6798<table><tr><td style="font-weight:bold;vertical-align:top;">comment</td><td style="vertical-align:top;">:</td><td><div></div></td></tr><tr><td style="font-weight:bold;vertical-align:top;">domain</td><td style="vertical-align:top;">:</td><td><div></div></td></tr><tr><td style="font-weight:bold;vertical-align:top;">expires</td><td style="vertical-align:top;">:</td><td><div></div></td></tr><tr><td style="font-weight:bold;vertical-align:top;">httponly</td><td style="vertical-align:top;">:</td><td><div></div></td></tr><tr><td style="font-weight:bold;vertical-align:top;">max-age</td><td style="vertical-align:top;">:</td><td><div></div></td></tr><tr><td style="font-weight:bold;vertical-align:top;">path</td><td style="vertical-align:top;">:</td><td><div></div></td></tr><tr><td style="font-weight:bold;vertical-align:top;">secure</td><td style="vertical-align:top;">:</td><td><div></div></td></tr><tr><td style="font-weight:bold;vertical-align:top;">version</td><td style="vertical-align:top;">:</td><td><div></div></td></tr></table></div></td></tr></table></div></td></tr><tr><td style="font-weight:bold;vertical-align:top;">env</td><td style="vertical-align:top;">:</td><td><div><table><tr><td style="font-weight:bold;vertical-align:top;">HTTP_ACCEPT</td><td style="vertical-align:top;">:</td><td><div>*/*</div></td></tr><tr><td style="font-weight:bold;vertical-align:top;">HTTP_ACCEPT_ENCODING</td><td style="vertical-align:top;">:</td><td><div>gzip, deflate, sdch</div></td></tr><tr><td style="font-weight:bold;vertical-align:top;">HTTP_ACCEPT_LANGUAGE</td><td style="vertical-align:top;">:</td><td><div>en-US,en;q=0.8</div></td></tr><tr><td style="font-weight:bold;vertical-align:top;">HTTP_CONNECTION</td><td style="vertical-align:top;">:</td><td><div>keep-alive</div></td></tr><tr><td style="font-weight:bold;vertical-align:top;">HTTP_COOKIE</td><td style="vertical-align:top;">:</td><td><div>session_id_welcome=127.0.0.1-2f30b862-4d42-4b9f-b6c4-9549ac6a6798; session_id_cookre=127.0.0.1-97d4dde2-9032-47b5-84b3-c990886403e3; session_id_admin=127.0.0.1-dc3bb73f-4980-4341-ae0c-25d3dadb69dc</div></td></tr><tr><td style="font-weight:bold;vertical-align:top;">HTTP_HOST</td><td style="vertical-align:top;">:</td><td><div>127.0.0.1:8000</div></td></tr><tr><td style="font-weight:bold;vertical-align:top;">HTTP_REFERER</td><td style="vertical-align:top;">:</td><td><div>http://127.0.0.1:8000/admin/default/edit/COOKRE/models/friends.py?id=models__friends__py</div></td></tr><tr><td style="font-weight:bold;vertical-align:top;">HTTP_USER_AGENT</td><td style="vertical-align:top;">:</td><td><div>Mozilla/5.0 (X11; Linux x86_64) AppleWebKit/537.36 (KHTML, like Gecko) Ubuntu Chromium/49.0.2623.87 Chrome/49.0.2623.87 Safari/537.36</div></td></tr><tr><td style="font-weight:bold;vertical-align:top;">HTTP_WEB2PY_COMPONENT_ELEMENT</td><td style="vertical-align:top;">:</td><td><div>c693711471972</div></td></tr><tr><td style="font-weight:bold;vertical-align:top;">HTTP_WEB2PY_COMPONENT_LOCATION</td><td style="vertical-align:top;">:</td><td><div>http://127.0.0.1:8000/admin/default/edit/COOKRE/models/friends.py?id=models__friends__py</div></td></tr><tr><td style="font-weight:bold;vertical-align:top;">HTTP_X_REQUESTED_WITH</td><td style="vertical-align:top;">:</td><td><div>XMLHttpRequest</div></td></tr><tr><td style="font-weight:bold;vertical-align:top;">PATH_INFO</td><td style="vertical-align:top;">:</td><td><div>/COOKRE/appadmin/hooks</div></td></tr><tr><td style="font-weight:bold;vertical-align:top;">QUERY_STRING</td><td style="vertical-align:top;">:</td><td><div></div></td></tr><tr><td style="font-weight:bold;vertical-align:top;">REMOTE_ADDR</td><td style="vertical-align:top;">:</td><td><div>127.0.0.1</div></td></tr><tr><td style="font-weight:bold;vertical-align:top;">REMOTE_PORT</td><td style="vertical-align:top;">:</td><td><div>48272</div></td></tr><tr><td style="font-weight:bold;vertical-align:top;">REQUEST_METHOD</td><td style="vertical-align:top;">:</td><td><div>GET</div></td></tr><tr><td style="font-weight:bold;vertical-align:top;">SCRIPT_NAME</td><td style="vertical-align:top;">:</td><td><div></div></td></tr><tr><td style="font-weight:bold;vertical-align:top;">SERVER_NAME</td><td style="vertical-align:top;">:</td><td><div>satyam-HP-450-Notebook-PC</div></td></tr><tr><td style="font-weight:bold;vertical-align:top;">SERVER_PORT</td><td style="vertical-align:top;">:</td><td><div>8000</div></td></tr><tr><td style="font-weight:bold;vertical-align:top;">SERVER_PROTOCOL</td><td style="vertical-align:top;">:</td><td><div>HTTP/1.1</div></td></tr><tr><td style="font-weight:bold;vertical-align:top;">SERVER_SOFTWARE</td><td style="vertical-align:top;">:</td><td><div>Rocket 1.2.6</div></td></tr><tr><td style="font-weight:bold;vertical-align:top;">app_folders</td><td style="vertical-align:top;">:</td><td><div>set([&#x27;/home/satyam/itws/web2py/applications/welcome/&#x27;, &#x27;/home/satyam/itws/web2py/applications/EStore/&#x27;, &#x27;/home/satyam/itws/web2py/applications/myapp/&#x27;, &#x27;/home/satyam/itws/web2py/applications/examples/&#x27;, &#x27;/home/satyam/itws/web2py/applications/IMBLOG/&#x27;, &#x27;/home/satyam/itws/web2py/applications/DropZone/&#x27;, &#x27;/home/satyam/itws/web2py/applications/FacebookExample/&#x27;, &#x27;/home/satyam/itws/web2py/applications/FacebookClone/&#x27;, &#x27;/home/satyam/itws/web2py/applications/COOKRE/&#x27;, &#x27;/home/satyam/itws/web2py/applications/DnaAnalysisNeedlemanWunsh/&#x27;, &#x27;/home/satyam/itws/web2py/applications/FacebookConnectExample/&#x27;, &#x27;/home/satyam/itws/web2py/applications/re/&#x27;, &#x27;/home/satyam/itws/web2py/applications/admin/&#x27;, &#x27;/home/satyam/itws/web2py/applications/ImageGallery/&#x27;, &#x27;/home/satyam/itws/web2py/applications/CookbookExample/&#x27;, &#x27;/home/satyam/itws/web2py/applications/CssDesigner/&#x27;])</div></td></tr><tr><td style="font-weight:bold;vertical-align:top;">applications_parent</td><td style="vertical-align:top;">:</td><td><div>/home/satyam/itws/web2py</div></td></tr><tr><td style="font-weight:bold;vertical-align:top;">cmd_args</td><td style="vertical-align:top;">:</td><td><div><table></table></div></td></tr><tr><td style="font-weight:bold;vertical-align:top;">cmd_options</td><td style="vertical-align:top;">:</td><td><div>&lt;Values at 0x7fd5d2ab8518: {&#x27;verbose&#x27;: False, &#x27;ip&#x27;: &#x27;127.0.0.1&#x27;, &#x27;debuglevel&#x27;: 30, &#x27;with_scheduler&#x27;: False, &#x27;ips&#x27;: [&#x27;127.0.1.1&#x27;], &#x27;shutdown_timeout&#x27;: 5, &#x27;taskbar&#x27;: False, &#x27;with_coverage&#x27;: False, &#x27;scheduler_groups&#x27;: None, &#x27;port&#x27;: 8000, &#x27;maxthreads&#x27;: None, &#x27;softcron&#x27;: False, &#x27;server_name&#x27;: &#x27;satyam-HP-450-Notebook-PC&#x27;, &#x27;bpython&#x27;: False, &#x27;nogui&#x27;: False, &#x27;pid_filename&#x27;: &#x27;httpserver.pid&#x27;, &#x27;print_errors&#x27;: False, &#x27;extcron&#x27;: False, &#x27;runcron&#x27;: False, &#x27;run_system_tests&#x27;: False, &#x27;test&#x27;: None, &#x27;folder&#x27;: &#x27;/home/satyam/itws/web2py&#x27;, &#x27;config&#x27;: &#x27;&#x27;, &#x27;minthreads&#x27;: None, &#x27;shell&#x27;: None, &#x27;run&#x27;: &#x27;&#x27;, &#x27;log_filename&#x27;: &#x27;httpserver.log&#x27;, &#x27;profiler_dir&#x27;: None, &#x27;args&#x27;: [&#x27;&#x27;], &#x27;socket_timeout&#x27;: 5, &#x27;ssl_ca_certificate&#x27;: None, &#x27;scheduler&#x27;: None, &#x27;interfaces&#x27;: None, &#x27;ssl_private_key&#x27;: &#x27;&#x27;, &#x27;gae&#x27;: None, &#x27;password&#x27;: &#x27;&lt;ask&gt;&#x27;, &#x27;request_queue_size&#x27;: 5, &#x27;ssl_certificate&#x27;: &#x27;&#x27;, &#x27;cronjob&#x27;: False, &#x27;numthreads&#x27;: None, &#x27;quiet&#x27;: False, &#x27;import_models&#x27;: False, &#x27;timeout&#x27;: 10, &#x27;plain&#x27;: False, &#x27;nobanner&#x27;: False}&gt;</div></td></tr><tr><td style="font-weight:bold;vertical-align:top;">db_sessions</td><td style="vertical-align:top;">:</td><td><div>set([])</div></td></tr><tr><td style="font-weight:bold;vertical-align:top;">debugging</td><td style="vertical-align:top;">:</td><td><div>True</div></td></tr><tr><td style="font-weight:bold;vertical-align:top;">gluon_parent</td><td style="vertical-align:top;">:</td><td><div>/home/satyam/itws/web2py</div></td></tr><tr><td style="font-weight:bold;vertical-align:top;">http_accept</td><td style="vertical-align:top;">:</td><td><div>*/*</div></td></tr><tr><td style="font-weight:bold;vertical-align:top;">http_accept_encoding</td><td style="vertical-align:top;">:</td><td><div>gzip, deflate, sdch</div></td></tr><tr><td style="font-weight:bold;vertical-align:top;">http_accept_language</td><td style="vertical-align:top;">:</td><td><div>en-US,en;q=0.8</div></td></tr><tr><td style="font-weight:bold;vertical-align:top;">http_connection</td><td style="vertical-align:top;">:</td><td><div>keep-alive</div></td></tr><tr><td style="font-weight:bold;vertical-align:top;">http_cookie</td><td style="vertical-align:top;">:</td><td><div>session_id_welcome=127.0.0.1-2f30b862-4d42-4b9f-b6c4-9549ac6a6798; session_id_cookre=127.0.0.1-97d4dde2-9032-47b5-84b3-c990886403e3; session_id_admin=127.0.0.1-dc3bb73f-4980-4341-ae0c-25d3dadb69dc</div></td></tr><tr><td style="font-weight:bold;vertical-align:top;">http_host</td><td style="vertical-align:top;">:</td><td><div>127.0.0.1:8000</div></td></tr><tr><td style="font-weight:bold;vertical-align:top;">http_referer</td><td style="vertical-align:top;">:</td><td><div>http://127.0.0.1:8000/admin/default/edit/COOKRE/models/friends.py?id=models__friends__py</div></td></tr><tr><td style="font-weight:bold;vertical-align:top;">http_user_agent</td><td style="vertical-align:top;">:</td><td><div>Mozilla/5.0 (X11; Linux x86_64) AppleWebKit/537.36 (KHTML, like Gecko) Ubuntu Chromium/49.0.2623.87 Chrome/49.0.2623.87 Safari/537.36</div></td></tr><tr><td style="font-weight:bold;vertical-align:top;">http_web2py_component_element</td><td style="vertical-align:top;">:</td><td><div>c693711471972</div></td></tr><tr><td style="font-weight:bold;vertical-align:top;">http_web2py_component_location</td><td style="vertical-align:top;">:</td><td><div>http://127.0.0.1:8000/admin/default/edit/COOKRE/models/friends.py?id=models__friends__py</div></td></tr><tr><td style="font-weight:bold;vertical-align:top;">http_x_requested_with</td><td style="vertical-align:top;">:</td><td><div>XMLHttpRequest</div></td></tr><tr><td style="font-weight:bold;vertical-align:top;">is_jython</td><td style="vertical-align:top;">:</td><td><div>False</div></td></tr><tr><td style="font-weight:bold;vertical-align:top;">is_pypy</td><td style="vertical-align:top;">:</td><td><div>False</div></td></tr><tr><td style="font-weight:bold;vertical-align:top;">is_source</td><td style="vertical-align:top;">:</td><td><div>True</div></td></tr><tr><td style="font-weight:bold;vertical-align:top;">local_hosts</td><td style="vertical-align:top;">:</td><td><div><table><tr><td><div>satyam-HP-450-Notebook-PC</div></td></tr><tr><td><div>::1</div></td></tr><tr><td><div>127.0.1.1</div></td></tr><tr><td><div>::ffff:127.0.0.1</div></td></tr><tr><td><div>127.0.0.1</div></td></tr></table></div></td></tr><tr><td style="font-weight:bold;vertical-align:top;">path_info</td><td style="vertical-align:top;">:</td><td><div>/COOKRE/appadmin/hooks</div></td></tr><tr><td style="font-weight:bold;vertical-align:top;">query_string</td><td style="vertical-align:top;">:</td><td><div></div></td></tr><tr><td style="font-weight:bold;vertical-align:top;">remote_addr</td><td style="vertical-align:top;">:</td><td><div>127.0.0.1</div></td></tr><tr><td style="font-weight:bold;vertical-align:top;">remote_port</td><td style="vertical-align:top;">:</td><td><div>48272</div></td></tr><tr><td style="font-weight:bold;vertical-align:top;">request_method</td><td style="vertical-align:top;">:</td><td><div>GET</div></td></tr><tr><td style="font-weight:bold;vertical-align:top;">request_uri</td><td style="vertical-align:top;">:</td><td><div>/COOKRE/appadmin/hooks</div></td></tr><tr><td style="font-weight:bold;vertical-align:top;">script_name</td><td style="vertical-align:top;">:</td><td><div></div></td></tr><tr><td style="font-weight:bold;vertical-align:top;">server_name</td><td style="vertical-align:top;">:</td><td><div>satyam-HP-450-Notebook-PC</div></td></tr><tr><td style="font-weight:bold;vertical-align:top;">server_port</td><td style="vertical-align:top;">:</td><td><div>8000</div></td></tr><tr><td style="font-weight:bold;vertical-align:top;">server_protocol</td><td style="vertical-align:top;">:</td><td><div>HTTP/1.1</div></td></tr><tr><td style="font-weight:bold;vertical-align:top;">server_software</td><td style="vertical-align:top;">:</td><td><div>Rocket 1.2.6</div></td></tr><tr><td style="font-weight:bold;vertical-align:top;">web2py_path</td><td style="vertical-align:top;">:</td><td><div>/home/satyam/itws/web2py</div></td></tr><tr><td style="font-weight:bold;vertical-align:top;">web2py_version</td><td style="vertical-align:top;">:</td><td><div>2.13.4-stable+timestamp.2015.12.26.04.59.39</div></td></tr><tr><td style="font-weight:bold;vertical-align:top;">wsgi.errors</td><td style="vertical-align:top;">:</td><td><div>&lt;open file &#x27;&lt;stderr&gt;&#x27;, mode &#x27;w&#x27; at 0x7fd5da3a61e0&gt;</div></td></tr><tr><td style="font-weight:bold;vertical-align:top;">wsgi.file_wrapper</td><td style="vertical-align:top;">:</td><td><div>&lt;class wsgiref.util.FileWrapper at 0x7fd5d2b59bb0&gt;</div></td></tr><tr><td style="font-weight:bold;vertical-align:top;">wsgi.input</td><td style="vertical-align:top;">:</td><td><div>&lt;socket._fileobject object at 0x7fd59281add0&gt;</div></td></tr><tr><td style="font-weight:bold;vertical-align:top;">wsgi.multiprocess</td><td style="vertical-align:top;">:</td><td><div>False</div></td></tr><tr><td style="font-weight:bold;vertical-align:top;">wsgi.multithread</td><td style="vertical-align:top;">:</td><td><div>True</div></td></tr><tr><td style="font-weight:bold;vertical-align:top;">wsgi.run_once</td><td style="vertical-align:top;">:</td><td><div>False</div></td></tr><tr><td style="font-weight:bold;vertical-align:top;">wsgi.url_scheme</td><td style="vertical-align:top;">:</td><td><div>http</div></td></tr><tr><td style="font-weight:bold;vertical-align:top;">wsgi.version</td><td style="vertical-align:top;">:</td><td><div><table><tr><td><div>1</div></td></tr><tr><td><div>0</div></td></tr></table></div></td></tr><tr><td style="font-weight:bold;vertical-align:top;">wsgi_errors</td><td style="vertical-align:top;">:</td><td><div>&lt;open file &#x27;&lt;stderr&gt;&#x27;, mode &#x27;w&#x27; at 0x7fd5da3a61e0&gt;</div></td></tr><tr><td style="font-weight:bold;vertical-align:top;">wsgi_file_wrapper</td><td style="vertical-align:top;">:</td><td><div>&lt;class wsgiref.util.FileWrapper at 0x7fd5d2b59bb0&gt;</div></td></tr><tr><td style="font-weight:bold;vertical-align:top;">wsgi_input</td><td style="vertical-align:top;">:</td><td><div>&lt;socket._fileobject object at 0x7fd59281add0&gt;</div></td></tr><tr><td style="font-weight:bold;vertical-align:top;">wsgi_multiprocess</td><td style="vertical-align:top;">:</td><td><div>False</div></td></tr><tr><td style="font-weight:bold;vertical-align:top;">wsgi_multithread</td><td style="vertical-align:top;">:</td><td><div>True</div></td></tr><tr><td style="font-weight:bold;vertical-align:top;">wsgi_run_once</td><td style="vertical-align:top;">:</td><td><div>False</div></td></tr><tr><td style="font-weight:bold;vertical-align:top;">wsgi_url_scheme</td><td style="vertical-align:top;">:</td><td><div>http</div></td></tr><tr><td style="font-weight:bold;vertical-align:top;">wsgi_version</td><td style="vertical-align:top;">:</td><td><div><table><tr><td><div>1</div></td></tr><tr><td><div>0</div></td></tr></table></div></td></tr></table></div></td></tr><tr><td style="font-weight:bold;vertical-align:top;">extension</td><td style="vertical-align:top;">:</td><td><div>html</div></td></tr><tr><td style="font-weight:bold;vertical-align:top;">folder</td><td style="vertical-align:top;">:</td><td><div>/home/satyam/itws/web2py/applications/COOKRE/</div></td></tr><tr><td style="font-weight:bold;vertical-align:top;">function</td><td style="vertical-align:top;">:</td><td><div>hooks</div></td></tr><tr><td style="font-weight:bold;vertical-align:top;">global_settings</td><td style="vertical-align:top;">:</td><td><div><table><tr><td style="font-weight:bold;vertical-align:top;">app_folders</td><td style="vertical-align:top;">:</td><td><div>set([&#x27;/home/satyam/itws/web2py/applications/welcome/&#x27;, &#x27;/home/satyam/itws/web2py/applications/EStore/&#x27;, &#x27;/home/satyam/itws/web2py/applications/myapp/&#x27;, &#x27;/home/satyam/itws/web2py/applications/examples/&#x27;, &#x27;/home/satyam/itws/web2py/applications/IMBLOG/&#x27;, &#x27;/home/satyam/itws/web2py/applications/DropZone/&#x27;, &#x27;/home/satyam/itws/web2py/applications/FacebookExample/&#x27;, &#x27;/home/satyam/itws/web2py/applications/FacebookClone/&#x27;, &#x27;/home/satyam/itws/web2py/applications/COOKRE/&#x27;, &#x27;/home/satyam/itws/web2py/applications/DnaAnalysisNeedlemanWunsh/&#x27;, &#x27;/home/satyam/itws/web2py/applications/FacebookConnectExample/&#x27;, &#x27;/home/satyam/itws/web2py/applications/re/&#x27;, &#x27;/home/satyam/itws/web2py/applications/admin/&#x27;, &#x27;/home/satyam/itws/web2py/applications/ImageGallery/&#x27;, &#x27;/home/satyam/itws/web2py/applications/CookbookExample/&#x27;, &#x27;/home/satyam/itws/web2py/applications/CssDesigner/&#x27;])</div></td></tr><tr><td style="font-weight:bold;vertical-align:top;">applications_parent</td><td style="vertical-align:top;">:</td><td><div>/home/satyam/itws/web2py</div></td></tr><tr><td style="font-weight:bold;vertical-align:top;">cmd_args</td><td style="vertical-align:top;">:</td><td><div><table></table></div></td></tr><tr><td style="font-weight:bold;vertical-align:top;">cmd_options</td><td style="vertical-align:top;">:</td><td><div>&lt;Values at 0x7fd5d2ab8518: {&#x27;verbose&#x27;: False, &#x27;ip&#x27;: &#x27;127.0.0.1&#x27;, &#x27;debuglevel&#x27;: 30, &#x27;with_scheduler&#x27;: False, &#x27;ips&#x27;: [&#x27;127.0.1.1&#x27;], &#x27;shutdown_timeout&#x27;: 5, &#x27;taskbar&#x27;: False, &#x27;with_coverage&#x27;: False, &#x27;scheduler_groups&#x27;: None, &#x27;port&#x27;: 8000, &#x27;maxthreads&#x27;: None, &#x27;softcron&#x27;: False, &#x27;server_name&#x27;: &#x27;satyam-HP-450-Notebook-PC&#x27;, &#x27;bpython&#x27;: False, &#x27;nogui&#x27;: False, &#x27;pid_filename&#x27;: &#x27;httpserver.pid&#x27;, &#x27;print_errors&#x27;: False, &#x27;extcron&#x27;: False, &#x27;runcron&#x27;: False, &#x27;run_system_tests&#x27;: False, &#x27;test&#x27;: None, &#x27;folder&#x27;: &#x27;/home/satyam/itws/web2py&#x27;, &#x27;config&#x27;: &#x27;&#x27;, &#x27;minthreads&#x27;: None, &#x27;shell&#x27;: None, &#x27;run&#x27;: &#x27;&#x27;, &#x27;log_filename&#x27;: &#x27;httpserver.log&#x27;, &#x27;profiler_dir&#x27;: None, &#x27;args&#x27;: [&#x27;&#x27;], &#x27;socket_timeout&#x27;: 5, &#x27;ssl_ca_certificate&#x27;: None, &#x27;scheduler&#x27;: None, &#x27;interfaces&#x27;: None, &#x27;ssl_private_key&#x27;: &#x27;&#x27;, &#x27;gae&#x27;: None, &#x27;password&#x27;: &#x27;&lt;ask&gt;&#x27;, &#x27;request_queue_size&#x27;: 5, &#x27;ssl_certificate&#x27;: &#x27;&#x27;, &#x27;cronjob&#x27;: False, &#x27;numthreads&#x27;: None, &#x27;quiet&#x27;: False, &#x27;import_models&#x27;: False, &#x27;timeout&#x27;: 10, &#x27;plain&#x27;: False, &#x27;nobanner&#x27;: False}&gt;</div></td></tr><tr><td style="font-weight:bold;vertical-align:top;">db_sessions</td><td style="vertical-align:top;">:</td><td><div>set([])</div></td></tr><tr><td style="font-weight:bold;vertical-align:top;">debugging</td><td style="vertical-align:top;">:</td><td><div>True</div></td></tr><tr><td style="font-weight:bold;vertical-align:top;">gluon_parent</td><td style="vertical-align:top;">:</td><td><div>/home/satyam/itws/web2py</div></td></tr><tr><td style="font-weight:bold;vertical-align:top;">is_jython</td><td style="vertical-align:top;">:</td><td><div>False</div></td></tr><tr><td style="font-weight:bold;vertical-align:top;">is_pypy</td><td style="vertical-align:top;">:</td><td><div>False</div></td></tr><tr><td style="font-weight:bold;vertical-align:top;">is_source</td><td style="vertical-align:top;">:</td><td><div>True</div></td></tr><tr><td style="font-weight:bold;vertical-align:top;">local_hosts</td><td style="vertical-align:top;">:</td><td><div><table><tr><td><div>satyam-HP-450-Notebook-PC</div></td></tr><tr><td><div>::1</div></td></tr><tr><td><div>127.0.1.1</div></td></tr><tr><td><div>::ffff:127.0.0.1</div></td></tr><tr><td><div>127.0.0.1</div></td></tr></table></div></td></tr><tr><td style="font-weight:bold;vertical-align:top;">web2py_version</td><td style="vertical-align:top;">:</td><td><div>2.13.4-stable+timestamp.2015.12.26.04.59.39</div></td></tr></table></div></td></tr><tr><td style="font-weight:bold;vertical-align:top;">is_https</td><td style="vertical-align:top;">:</td><td><div>False</div></td></tr><tr><td style="font-weight:bold;vertical-align:top;">is_local</td><td style="vertical-align:top;">:</td><td><div>True</div></td></tr><tr><td style="font-weight:bold;vertical-align:top;">is_restful</td><td style="vertical-align:top;">:</td><td><div>False</div></td></tr><tr><td style="font-weight:bold;vertical-align:top;">is_scheduler</td><td style="vertical-align:top;">:</td><td><div>False</div></td></tr><tr><td style="font-weight:bold;vertical-align:top;">is_shell</td><td style="vertical-align:top;">:</td><td><div>False</div></td></tr><tr><td style="font-weight:bold;vertical-align:top;">now</td><td style="vertical-align:top;">:</td><td><div>datetime.datetime(2016, 3, 25, 19, 9, 14, 67564)</div></td></tr><tr><td style="font-weight:bold;vertical-align:top;">raw_args</td><td style="vertical-align:top;">:</td><td><div></div></td></tr><tr><td style="font-weight:bold;vertical-align:top;">raw_extension</td><td style="vertical-align:top;">:</td><td><div>None</div></td></tr><tr><td style="font-weight:bold;vertical-align:top;">url</td><td style="vertical-align:top;">:</td><td><div>/COOKRE/appadmin/hooks</div></td></tr><tr><td style="font-weight:bold;vertical-align:top;">utcnow</td><td style="vertical-align:top;">:</td><td><div>datetime.datetime(2016, 3, 25, 13, 39, 14, 67591)</div></td></tr><tr><td style="font-weight:bold;vertical-align:top;">wsgi</td><td style="vertical-align:top;">:</td><td><div>&lt;gluon.main.LazyWSGI object at 0x7fd5935740d0&gt;</div></td></tr></table></div>'
tRp58
sS'frames'
p59
(lp60
(dp61
S'file'
p62
S'/home/satyam/itws/web2py/gluon/restricted.py'
p63
sS'dump'
p64
(dp65
S'environment'
p66
S"{'A': <class 'gluon.html.A'>, 'ANY_OF': <class 'gluon.validators.ANY_OF'>, 'ASSIGNJS': <function ASSIGNJS>, 'Auth': <class 'gluon.tools.Auth'>, 'B': <class 'gluon.html.B'>, 'BEAUTIFY': <class 'gluon.html.BEAUTIFY'>, 'BODY': <class 'gluon.html.BODY'>, 'BR': <class 'gluon.html.BR'>, 'BUTTON': <class 'gluon.html.BUTTON'>, 'CAT': <class 'gluon.html.CAT'>, ...}"
p67
sS'ccode'
p68
S'<code object <module> at 0x7fd593df5430, file "/...y/applications/COOKRE/models/friends.py", line 1>'
p69
ssS'lnum'
p70
I227
sS'lines'
p71
(dp72
I224
S'            ccode = code'
p73
sI225
S'        else:'
p74
sI226
S'            ccode = compile2(code, layer)'
p75
sI227
S'        exec ccode in environment'
p76
sI228
S'    except HTTP:'
p77
sI229
S'        raise'
p78
sI230
S'    except RestrictedError:'
p79
sI231
S'        # do not encapsulate (obfuscate) the original RestrictedError'
p80
sI222
S'    try:'
p81
sI223
S'        if isinstance(code, types.CodeType):'
p82
ssS'call'
p83
S'(code="from datetime import datetime\\n\\ndb.define_table(\'...\'notes\',\'text\'),\\n  Field(\'pictures\',\'upload\'),\\n)\\n", environment={\'A\': <class \'gluon.html.A\'>, \'ANY_OF\': <class \'gluon.validators.ANY_OF\'>, \'ASSIGNJS\': <function ASSIGNJS>, \'Auth\': <class \'gluon.tools.Auth\'>, \'B\': <class \'gluon.html.B\'>, \'BEAUTIFY\': <class \'gluon.html.BEAUTIFY\'>, \'BODY\': <class \'gluon.html.BODY\'>, \'BR\': <class \'gluon.html.BR\'>, \'BUTTON\': <class \'gluon.html.BUTTON\'>, \'CAT\': <class \'gluon.html.CAT\'>, ...}, layer=\'/home/satyam/itws/web2py/applications/COOKRE/models/friends.py\')'
p84
sS'func'
p85
S'restricted'
p86
sa(dp87
g62
S'/home/satyam/itws/web2py/applications/COOKRE/models/friends.py'
p88
sg64
(dp89
S'_type'
p90
S'undefined'
p91
sS'checkbox'
p92
g91
sS'multiple'
p93
g91
sS'builtinFalse'
p94
S'False'
p95
sS'error_message'
p96
g91
sS'zero'
p97
g91
sS'Field'
p98
S"<class 'pydal.objects.Field'>"
p99
sS'IS_IN_SET'
p100
S"<class 'gluon.validators.IS_IN_SET'>"
p101
sS'T'
S'<gluon.languages.translator object>'
p102
sS'requires'
p103
g91
ssg70
I9
sg71
(dp104
I4
S''
sI5
S"db.define_table('recipe',"
p105
sI6
S"  Field('user_ref','reference auth_user', default=auth.user_id, readable=False, writable=False),"
p106
sI7
S"  Field('creationTime','datetime', default=datetime.utcnow(), readable=False, writable=False),"
p107
sI8
S"  Field('title','string', requires=IS_NOT_EMPTY()),"
p108
sI9
S'  Field(\'category\',_type=checkbox,requires=IS_IN_SET(("VEG", "NON-VEG"),zero=T("choose one"),'
p109
sI10
S"         error_message='must be a or b or c',multiple=False)),"
p110
sI11
S"  Field('ingredients','list:string', requires=IS_NOT_EMPTY()),"
p111
sI12
S"  Field('directions','list:string', requires=IS_NOT_EMPTY()),"
p112
sI13
S"  Field('src','string'),"
p113
ssg83
S'()'
p114
sg85
S'<module>'
p115
sasS'pyver'
p116
S'Python 2.7.10: /usr/bin/python (prefix: /usr)'
p117
sS'session'
p118
g57
(S's\x1e\t\x00\x00<div><table><tr><td style="font-weight:bold;vertical-align:top;">auth</td><td style="vertical-align:top;">:</td><td><div><table><tr><td style="font-weight:bold;vertical-align:top;">expiration</td><td style="vertical-align:top;">:</td><td><div>3600</div></td></tr><tr><td style="font-weight:bold;vertical-align:top;">hmac_key</td><td style="vertical-align:top;">:</td><td><div>10394542-cbc8-4233-a44e-a3bd4bdd8a33</div></td></tr><tr><td style="font-weight:bold;vertical-align:top;">last_visit</td><td style="vertical-align:top;">:</td><td><div>datetime.datetime(2016, 3, 25, 19, 9, 14, 67564)</div></td></tr><tr><td style="font-weight:bold;vertical-align:top;">remember_me</td><td style="vertical-align:top;">:</td><td><div>False</div></td></tr><tr><td style="font-weight:bold;vertical-align:top;">user</td><td style="vertical-align:top;">:</td><td><div><table><tr><td style="font-weight:bold;vertical-align:top;">email</td><td style="vertical-align:top;">:</td><td><div>satyammittalid@gmail.com</div></td></tr><tr><td style="font-weight:bold;vertical-align:top;">first_name</td><td style="vertical-align:top;">:</td><td><div>Satyam</div></td></tr><tr><td style="font-weight:bold;vertical-align:top;">id</td><td style="vertical-align:top;">:</td><td><div>1L</div></td></tr><tr><td style="font-weight:bold;vertical-align:top;">last_name</td><td style="vertical-align:top;">:</td><td><div>Mittal</div></td></tr><tr><td style="font-weight:bold;vertical-align:top;">registration_id</td><td style="vertical-align:top;">:</td><td><div></div></td></tr><tr><td style="font-weight:bold;vertical-align:top;">registration_key</td><td style="vertical-align:top;">:</td><td><div></div></td></tr><tr><td style="font-weight:bold;vertical-align:top;">reset_password_key</td><td style="vertical-align:top;">:</td><td><div>1458743319-7418ace9-988f-49eb-a692-8ee03ae6dff3</div></td></tr></table></div></td></tr><tr><td style="font-weight:bold;vertical-align:top;">user_groups</td><td style="vertical-align:top;">:</td><td><div><table><tr><td style="font-weight:bold;vertical-align:top;">1</td><td style="vertical-align:top;">:</td><td><div>user_1</div></td></tr></table></div></td></tr></table></div></td></tr><tr><td style="font-weight:bold;vertical-align:top;">flash</td><td style="vertical-align:top;">:</td><td><div>None</div></td></tr></table></div>'
tRp119
sS'etype'
p120
S"<type 'exceptions.NameError'>"
p121
sS'date'
p122
S'Fri Mar 25 19:09:14 2016'
p123
sS'response'
p124
g57
(S's\xf5\x17\x00\x00<div><table><tr><td style="font-weight:bold;vertical-align:top;">body</td><td style="vertical-align:top;">:</td><td><div>&lt;cStringIO.StringO object at 0x7fd5927fb0a0&gt;</div></td></tr><tr><td style="font-weight:bold;vertical-align:top;">cookies</td><td style="vertical-align:top;">:</td><td><div><table><tr><td style="font-weight:bold;vertical-align:top;">session_id_cookre</td><td style="vertical-align:top;">:</td><td><div>127.0.0.1-97d4dde2-9032-47b5-84b3-c990886403e3<table><tr><td style="font-weight:bold;vertical-align:top;">comment</td><td style="vertical-align:top;">:</td><td><div></div></td></tr><tr><td style="font-weight:bold;vertical-align:top;">domain</td><td style="vertical-align:top;">:</td><td><div></div></td></tr><tr><td style="font-weight:bold;vertical-align:top;">expires</td><td style="vertical-align:top;">:</td><td><div></div></td></tr><tr><td style="font-weight:bold;vertical-align:top;">httponly</td><td style="vertical-align:top;">:</td><td><div></div></td></tr><tr><td style="font-weight:bold;vertical-align:top;">max-age</td><td style="vertical-align:top;">:</td><td><div></div></td></tr><tr><td style="font-weight:bold;vertical-align:top;">path</td><td style="vertical-align:top;">:</td><td><div>/</div></td></tr><tr><td style="font-weight:bold;vertical-align:top;">secure</td><td style="vertical-align:top;">:</td><td><div></div></td></tr><tr><td style="font-weight:bold;vertical-align:top;">version</td><td style="vertical-align:top;">:</td><td><div></div></td></tr></table></div></td></tr></table></div></td></tr><tr><td style="font-weight:bold;vertical-align:top;">delimiters</td><td style="vertical-align:top;">:</td><td><div><table><tr><td><div>{{</div></td></tr><tr><td><div>}}</div></td></tr></table></div></td></tr><tr><td style="font-weight:bold;vertical-align:top;">files</td><td style="vertical-align:top;">:</td><td><div><table></table></div></td></tr><tr><td style="font-weight:bold;vertical-align:top;">flash</td><td style="vertical-align:top;">:</td><td><div></div></td></tr><tr><td style="font-weight:bold;vertical-align:top;">form_label_separator</td><td style="vertical-align:top;">:</td><td><div>: </div></td></tr><tr><td style="font-weight:bold;vertical-align:top;">formstyle</td><td style="vertical-align:top;">:</td><td><div>table3cols</div></td></tr><tr><td style="font-weight:bold;vertical-align:top;">generic_patterns</td><td style="vertical-align:top;">:</td><td><div><table><tr><td><div>*</div></td></tr></table></div></td></tr><tr><td style="font-weight:bold;vertical-align:top;">headers</td><td style="vertical-align:top;">:</td><td><div><table><tr><td style="font-weight:bold;vertical-align:top;">X-Powered-By</td><td style="vertical-align:top;">:</td><td><div>web2py</div></td></tr></table></div></td></tr><tr><td style="font-weight:bold;vertical-align:top;">menu</td><td style="vertical-align:top;">:</td><td><div><table></table></div></td></tr><tr><td style="font-weight:bold;vertical-align:top;">meta</td><td style="vertical-align:top;">:</td><td><div><table></table></div></td></tr><tr><td style="font-weight:bold;vertical-align:top;">models_to_run</td><td style="vertical-align:top;">:</td><td><div><table><tr><td><div>^\\w+\\.py$</div></td></tr><tr><td><div>^appadmin/\\w+\\.py$</div></td></tr><tr><td><div>^appadmin/hooks/\\w+\\.py$</div></td></tr></table></div></td></tr><tr><td style="font-weight:bold;vertical-align:top;">postprocessing</td><td style="vertical-align:top;">:</td><td><div><table></table></div></td></tr><tr><td style="font-weight:bold;vertical-align:top;">session_client</td><td style="vertical-align:top;">:</td><td><div>127.0.0.1</div></td></tr><tr><td style="font-weight:bold;vertical-align:top;">session_cookie_compression_level</td><td style="vertical-align:top;">:</td><td><div>None</div></td></tr><tr><td style="font-weight:bold;vertical-align:top;">session_cookie_expires</td><td style="vertical-align:top;">:</td><td><div>None</div></td></tr><tr><td style="font-weight:bold;vertical-align:top;">session_cookie_key</td><td style="vertical-align:top;">:</td><td><div>None</div></td></tr><tr><td style="font-weight:bold;vertical-align:top;">session_data_name</td><td style="vertical-align:top;">:</td><td><div>session_data_cookre</div></td></tr><tr><td style="font-weight:bold;vertical-align:top;">session_file</td><td style="vertical-align:top;">:</td><td><div>&lt;open file &#x27;/home/satyam/itws/web2py/applications/COOKRE/sessions/12d/1f3/127.0.0.1-97d4dde2-9032-47b5-84b3-c990886403e3&#x27;, mode &#x27;rb+&#x27; at 0x7fd5a0237db0&gt;</div></td></tr><tr><td style="font-weight:bold;vertical-align:top;">session_filename</td><td style="vertical-align:top;">:</td><td><div>/home/satyam/itws/web2py/applications/COOKRE/sessions/127.0.0.1-97d4dde2-9032-47b5-84b3-c990886403e3</div></td></tr><tr><td style="font-weight:bold;vertical-align:top;">session_hash</td><td style="vertical-align:top;">:</td><td><div>cb2502a01e65e013b2ebb1b0a491c913</div></td></tr><tr><td style="font-weight:bold;vertical-align:top;">session_id</td><td style="vertical-align:top;">:</td><td><div>127.0.0.1-97d4dde2-9032-47b5-84b3-c990886403e3</div></td></tr><tr><td style="font-weight:bold;vertical-align:top;">session_id_name</td><td style="vertical-align:top;">:</td><td><div>session_id_cookre</div></td></tr><tr><td style="font-weight:bold;vertical-align:top;">session_locked</td><td style="vertical-align:top;">:</td><td><div>True</div></td></tr><tr><td style="font-weight:bold;vertical-align:top;">session_masterapp</td><td style="vertical-align:top;">:</td><td><div>COOKRE</div></td></tr><tr><td style="font-weight:bold;vertical-align:top;">session_new</td><td style="vertical-align:top;">:</td><td><div>False</div></td></tr><tr><td style="font-weight:bold;vertical-align:top;">session_storage_type</td><td style="vertical-align:top;">:</td><td><div>file</div></td></tr><tr><td style="font-weight:bold;vertical-align:top;">status</td><td style="vertical-align:top;">:</td><td><div>200</div></td></tr><tr><td style="font-weight:bold;vertical-align:top;">view</td><td style="vertical-align:top;">:</td><td><div>appadmin/hooks.html</div></td></tr></table></div>'
tRp125
sS'locals'
p126
(dp127
S'Service'
p128
S"<class 'gluon.tools.Service'>"
p129
sS'OBJECT'
p130
S"<class 'gluon.html.OBJECT'>"
p131
sS'SQLDB'
p132
S"<class 'pydal.base.DAL'>"
p133
sg118
S"<Storage {'_auth_next': None, 'flash': None, '_f...gin]': ['348a21c1-9d98-4782-b40b-7b2ebb1c5fa0']}>"
p134
sS'LINK'
p135
S"<class 'gluon.html.LINK'>"
p136
sS'BR'
p137
S"<class 'gluon.html.BR'>"
p138
sS'local_import'
p139
S'<function <lambda>>'
p140
sS'OPTGROUP'
p141
S"<class 'gluon.html.OPTGROUP'>"
p142
sS'LI'
p143
S"<class 'gluon.html.LI'>"
p144
sS'PRE'
p145
S"<class 'gluon.html.PRE'>"
p146
sS'IS_INT_IN_RANGE'
p147
S"<class 'gluon.validators.IS_INT_IN_RANGE'>"
p148
sS'IS_LOWER'
p149
S"<class 'gluon.validators.IS_LOWER'>"
p150
sS'IS_STRONG'
p151
S"<class 'gluon.validators.IS_STRONG'>"
p152
sS'cache'
p153
S'<gluon.cache.Cache object>'
p154
sS'IS_IN_DB'
p155
S"<class 'gluon.validators.IS_IN_DB'>"
p156
sS'TAG'
p157
S'<gluon.html.__TAG__ object>'
p158
sS'SQLField'
p159
S"<class 'pydal.objects.Field'>"
p160
sS'mail'
p161
S'<gluon.tools.Mail object>'
p162
sS'BODY'
p163
S"<class 'gluon.html.BODY'>"
p164
sS'IS_DATE_IN_RANGE'
p165
S"<class 'gluon.validators.IS_DATE_IN_RANGE'>"
p166
sS'TH'
p167
S"<class 'gluon.html.TH'>"
p168
sS'URL'
p169
S'<function URL>'
p170
sS'__file__'
p171
S"'/home/satyam/itws/web2py/applications/COOKRE/models/friends.py'"
p172
sS'db'
p173
S'<DAL uri="sqlite://storage.sqlite">'
p174
sS'auth'
p175
S'<gluon.tools.Auth object>'
p176
sS'P'
S"<class 'gluon.html.P'>"
p177
sS'TFOOT'
p178
S"<class 'gluon.html.TFOOT'>"
p179
sS'XHTML'
p180
S"<class 'gluon.html.XHTML'>"
p181
sS'datetime'
p182
S"<type 'datetime.datetime'>"
p183
sS'ON'
p184
S'True'
p185
sS'OL'
p186
S"<class 'gluon.html.OL'>"
p187
sS'TEXTAREA'
p188
S"<class 'gluon.html.TEXTAREA'>"
p189
sS'MENU'
p190
S"<class 'gluon.html.MENU'>"
p191
sS'LOAD'
p192
S'<function LOAD>'
p193
sS'CODE'
p194
S"<class 'gluon.html.CODE'>"
p195
sS'HTTP'
p196
S"<class 'gluon.http.HTTP'>"
p197
sS'HR'
p198
S"<class 'gluon.html.HR'>"
p199
sS'IS_DATETIME'
p200
S"<class 'gluon.validators.IS_DATETIME'>"
p201
sS'HEAD'
p202
S"<class 'gluon.html.HEAD'>"
p203
sS'LABEL'
p204
S"<class 'gluon.html.LABEL'>"
p205
sS'CLEANUP'
p206
S"<class 'gluon.validators.CLEANUP'>"
p207
sS'plugins'
p208
S'<gluon.tools.PluginManager object>'
p209
sS'SELECT'
p210
S"<class 'gluon.html.SELECT'>"
p211
sS'use_janrain'
p212
S'<function use_janrain>'
p213
sS'CENTER'
p214
S"<class 'gluon.html.CENTER'>"
p215
sS'prettydate'
p216
S'<function prettydate>'
p217
sS'Crud'
p218
S"<class 'gluon.tools.Crud'>"
p219
sS'Auth'
p220
S"<class 'gluon.tools.Auth'>"
p221
sS'__builtins__'
p222
S"{'ArithmeticError': <type 'exceptions.ArithmeticError'>, 'AssertionError': <type 'exceptions.AssertionError'>, 'AttributeError': <type 'exceptions.AttributeError'>, 'BaseException': <type 'exceptions.BaseException'>, 'BufferError': <type 'exceptions.BufferError'>, 'BytesWarning': <type 'exceptions.BytesWarning'>, 'DeprecationWarning': <type 'exceptions.DeprecationWarning'>, 'EOFError': <type 'exceptions.EOFError'>, 'Ellipsis': Ellipsis, 'EnvironmentError': <type 'exceptions.EnvironmentError'>, ...}"
p223
sS'HTML'
p224
S"<class 'gluon.html.HTML'>"
p225
sS'SQLFORM'
p226
S"<class 'gluon.sqlhtml.SQLFORM'>"
p227
sS'EM'
p228
S"<class 'gluon.html.EM'>"
p229
sS'redirect'
p230
S'<function redirect>'
p231
sS'FIELDSET'
p232
S"<class 'gluon.html.FIELDSET'>"
p233
sS'IS_EQUAL_TO'
p234
S"<class 'gluon.validators.IS_EQUAL_TO'>"
p235
sS'embed64'
p236
S'<function embed64>'
p237
sS'IS_LIST_OF'
p238
S"<class 'gluon.validators.IS_LIST_OF'>"
p239
sS'__name__'
p240
S"'__restricted__'"
p241
sS'EMBED'
p242
S"<class 'gluon.html.EMBED'>"
p243
sS'FORM'
p244
S"<class 'gluon.html.FORM'>"
p245
sS'H2'
p246
S"<class 'gluon.html.H2'>"
p247
sS'H3'
p248
S"<class 'gluon.html.H3'>"
p249
sS'BUTTON'
p250
S"<class 'gluon.html.BUTTON'>"
p251
sS'H1'
p252
S"<class 'gluon.html.H1'>"
p253
sS'H6'
p254
S"<class 'gluon.html.H6'>"
p255
sS'H4'
p256
S"<class 'gluon.html.H4'>"
p257
sS'H5'
p258
S"<class 'gluon.html.H5'>"
p259
sS'UL'
p260
S"<class 'gluon.html.UL'>"
p261
sS'IS_UPPER'
p262
S"<class 'gluon.validators.IS_UPPER'>"
p263
sS'xmlescape'
p264
S'<function xmlescape>'
p265
sS'IS_TIME'
p266
S"<class 'gluon.validators.IS_TIME'>"
p267
sS'OPTION'
p268
S"<class 'gluon.html.OPTION'>"
p269
sS'TITLE'
p270
S"<class 'gluon.html.TITLE'>"
p271
sS'CRYPT'
p272
S"<class 'gluon.validators.CRYPT'>"
p273
sS'IS_EMPTY_OR'
p274
S"<class 'gluon.validators.IS_EMPTY_OR'>"
p275
sS'MARKMIN'
p276
S"<class 'gluon.html.MARKMIN'>"
p277
sS'INPUT'
p278
S"<class 'gluon.html.INPUT'>"
p279
sS'STRONG'
p280
S"<class 'gluon.html.STRONG'>"
p281
sS'COL'
p282
S"<class 'gluon.html.COL'>"
p283
sS'service'
p284
S'<gluon.tools.Service object>'
p285
sS'SCRIPT'
p286
S"<class 'gluon.html.SCRIPT'>"
p287
sS'TABLE'
p288
S"<class 'gluon.html.TABLE'>"
p289
sS'IS_IPV4'
p290
S"<class 'gluon.validators.IS_IPV4'>"
p291
sS'IS_LENGTH'
p292
S"<class 'gluon.validators.IS_LENGTH'>"
p293
sS'IS_IPV6'
p294
S"<class 'gluon.validators.IS_IPV6'>"
p295
sS'XML'
p296
S"<class 'gluon.html.XML'>"
p297
sS'B'
S"<class 'gluon.html.B'>"
p298
sS'IMG'
p299
S"<class 'gluon.html.IMG'>"
p300
sS'SQLTABLE'
p301
S"<class 'gluon.sqlhtml.SQLTABLE'>"
p302
sS'IS_MATCH'
p303
S"<class 'gluon.validators.IS_MATCH'>"
p304
sS'IS_ALPHANUMERIC'
p305
S"<class 'gluon.validators.IS_ALPHANUMERIC'>"
p306
sS'SPAN'
p307
S"<class 'gluon.html.SPAN'>"
p308
sS'IS_JSON'
p309
S"<class 'gluon.validators.IS_JSON'>"
p310
sS'IS_IPADDRESS'
p311
S"<class 'gluon.validators.IS_IPADDRESS'>"
p312
sS'IS_SLUG'
p313
S"<class 'gluon.validators.IS_SLUG'>"
p314
sS'BEAUTIFY'
p315
S"<class 'gluon.html.BEAUTIFY'>"
p316
sS'META'
p317
S"<class 'gluon.html.META'>"
p318
sS'IS_DATE'
p319
S"<class 'gluon.validators.IS_DATE'>"
p320
sS'IS_EMAIL'
p321
S"<class 'gluon.validators.IS_EMAIL'>"
p322
sS'IS_NOT_EMPTY'
p323
S"<class 'gluon.validators.IS_NOT_EMPTY'>"
p324
sS'IS_FLOAT_IN_RANGE'
p325
S"<class 'gluon.validators.IS_FLOAT_IN_RANGE'>"
p326
sS'TBODY'
p327
S"<class 'gluon.html.TBODY'>"
p328
sS'CAT'
p329
S"<class 'gluon.html.CAT'>"
p330
sS'Field'
p331
S"<class 'pydal.objects.Field'>"
p332
sS'IS_LIST_OF_EMAILS'
p333
S"<class 'gluon.validators.IS_LIST_OF_EMAILS'>"
p334
sS'DIV'
p335
S"<class 'gluon.html.DIV'>"
p336
sS'LEGEND'
p337
S"<class 'gluon.html.LEGEND'>"
p338
sS'COLGROUP'
p339
S"<class 'gluon.html.COLGROUP'>"
p340
sS'DAL'
p341
S"<class 'pydal.base.DAL'>"
p342
sS'ASSIGNJS'
p343
S'<function ASSIGNJS>'
p344
sS'TR'
p345
S"<class 'gluon.html.TR'>"
p346
sS'__package__'
p347
S'None'
p348
sS'IFRAME'
p349
S"<class 'gluon.html.IFRAME'>"
p350
sS'TD'
p351
S"<class 'gluon.html.TD'>"
p352
sS'PluginManager'
p353
S"<class 'gluon.tools.PluginManager'>"
p354
sS'IS_URL'
p355
S"<class 'gluon.validators.IS_URL'>"
p356
sS'A'
S"<class 'gluon.html.A'>"
p357
sS'STYLE'
p358
S"<class 'gluon.html.STYLE'>"
p359
sS'IS_DATETIME_IN_RANGE'
p360
S"<class 'gluon.validators.IS_DATETIME_IN_RANGE'>"
p361
sS'IS_IMAGE'
p362
S"<class 'gluon.validators.IS_IMAGE'>"
p363
sS'I'
S"<class 'gluon.html.I'>"
p364
sS'crud'
p365
S'<gluon.tools.Crud object>'
p366
sS'IS_NOT_IN_DB'
p367
S"<class 'gluon.validators.IS_NOT_IN_DB'>"
p368
sg124
S"<Storage {'body': <cStringIO.StringO object at 0... 0x7fd593856de8>, 'view': 'appadmin/hooks.html'}>"
p369
sS'THEAD'
p370
S"<class 'gluon.html.THEAD'>"
p371
sS'ANY_OF'
p372
S"<class 'gluon.validators.ANY_OF'>"
p373
sS'IS_NULL_OR'
p374
S"<class 'gluon.validators.IS_EMPTY_OR'>"
p375
sg56
S"<Storage {'_vars': None, 'function': 'hooks', 'c...'/home/satyam/itws/web2py/applications/COOKRE/'}>"
p376
sS'IS_EXPR'
p377
S"<class 'gluon.validators.IS_EXPR'>"
p378
sS'IS_IN_SET'
p379
S"<class 'gluon.validators.IS_IN_SET'>"
p380
sS'IS_UPLOAD_FILENAME'
p381
S"<class 'gluon.validators.IS_UPLOAD_FILENAME'>"
p382
sS'IS_DECIMAL_IN_RANGE'
p383
S"<class 'gluon.validators.IS_DECIMAL_IN_RANGE'>"
p384
sS'TT'
p385
S"<class 'gluon.html.TT'>"
p386
sS'T'
S'<gluon.languages.translator object>'
p387
sssS'traceback'
p388
S'Traceback (most recent call last):\n  File "/home/satyam/itws/web2py/gluon/restricted.py", line 227, in restricted\n    exec ccode in environment\n  File "/home/satyam/itws/web2py/applications/COOKRE/models/friends.py", line 9, in <module>\n    Field(\'category\',_type=checkbox,requires=IS_IN_SET(("VEG", "NON-VEG"),zero=T("choose one"),\nNameError: name \'checkbox\' is not defined\n'
p389
s.